target datalayout = "e-m:e-p270:32:32-p271:32:32-p272:64:64-i64:64-i128:128-f80:128-n8:16:32:64-S128"
target triple = "x86_64-pc-linux-gnu"

%struct.Aig_CMan_t_ = type { i32, i32, i32, i32, i32, i32, ptr, i32, i32, [0 x i8] }

; Function Attrs: nounwind uwtable
define ptr @Aig_CManStart(i32 noundef %0, i32 noundef %1, i32 noundef %2) #0 {
  %4 = alloca i32, align 4
  %5 = alloca i32, align 4
  %6 = alloca i32, align 4
  %7 = alloca ptr, align 8
  store i32 %0, ptr %4, align 4, !tbaa !10
  store i32 %1, ptr %5, align 4, !tbaa !10
  store i32 %2, ptr %6, align 4, !tbaa !10
  call void @llvm.lifetime.start.p0(i64 8, ptr %7) #9
  %8 = load i32, ptr %5, align 4, !tbaa !10
  %9 = mul nsw i32 2, %8
  %10 = load i32, ptr %6, align 4, !tbaa !10
  %11 = add nsw i32 %9, %10
  %12 = mul nsw i32 2, %11
  %13 = sext i32 %12 to i64
  %14 = add i64 40, %13
  %15 = mul i64 1, %14
  %16 = call noalias ptr @malloc(i64 noundef %15) #12
  store ptr %16, ptr %7, align 8, !tbaa !53
  %17 = load ptr, ptr %7, align 8, !tbaa !53
  call void @llvm.memset.p0.i64(ptr align 8 %17, i8 0, i64 40, i1 false)
  %18 = load i32, ptr %4, align 4, !tbaa !10
  %19 = load ptr, ptr %7, align 8, !tbaa !53
  %20 = getelementptr inbounds nuw %struct.Aig_CMan_t_, ptr %19, i32 0, i32 0
  store i32 %18, ptr %20, align 8, !tbaa !55
  %21 = load i32, ptr %6, align 4, !tbaa !10
  %22 = load ptr, ptr %7, align 8, !tbaa !53
  %23 = getelementptr inbounds nuw %struct.Aig_CMan_t_, ptr %22, i32 0, i32 2
  store i32 %21, ptr %23, align 8, !tbaa !57
  %24 = load i32, ptr %5, align 4, !tbaa !10
  %25 = load ptr, ptr %7, align 8, !tbaa !53
  %26 = getelementptr inbounds nuw %struct.Aig_CMan_t_, ptr %25, i32 0, i32 1
  store i32 %24, ptr %26, align 4, !tbaa !58
  %27 = load i32, ptr %5, align 4, !tbaa !10
  %28 = mul nsw i32 2, %27
  %29 = load i32, ptr %6, align 4, !tbaa !10
  %30 = add nsw i32 %28, %29
  %31 = mul nsw i32 2, %30
  %32 = load ptr, ptr %7, align 8, !tbaa !53
  %33 = getelementptr inbounds nuw %struct.Aig_CMan_t_, ptr %32, i32 0, i32 8
  store i32 %31, ptr %33, align 4, !tbaa !59
  %34 = load ptr, ptr %7, align 8, !tbaa !53
  %35 = getelementptr inbounds nuw %struct.Aig_CMan_t_, ptr %34, i32 0, i32 0
  %36 = load i32, ptr %35, align 8, !tbaa !55
  %37 = add nsw i32 1, %36
  %38 = load ptr, ptr %7, align 8, !tbaa !53
  %39 = getelementptr inbounds nuw %struct.Aig_CMan_t_, ptr %38, i32 0, i32 3
  store i32 %37, ptr %39, align 4, !tbaa !60
  %40 = load ptr, ptr %7, align 8, !tbaa !53
  %41 = getelementptr inbounds nuw %struct.Aig_CMan_t_, ptr %40, i32 0, i32 7
  store i32 -1, ptr %41, align 8, !tbaa !61
  %42 = load ptr, ptr %7, align 8, !tbaa !53
  %43 = getelementptr inbounds nuw %struct.Aig_CMan_t_, ptr %42, i32 0, i32 9
  %44 = getelementptr inbounds [0 x i8], ptr %43, i64 0, i64 0
  %45 = load ptr, ptr %7, align 8, !tbaa !53
  %46 = getelementptr inbounds nuw %struct.Aig_CMan_t_, ptr %45, i32 0, i32 6
  store ptr %44, ptr %46, align 8, !tbaa !62
  %47 = load ptr, ptr %7, align 8, !tbaa !53
  call void @llvm.lifetime.end.p0(i64 8, ptr %7) #9
  ret ptr %47
}