; Function Attrs: mustprogress nofree nounwind willreturn memory(write, argmem: none, inaccessiblemem: readwrite) uwtable
define noundef ptr @Aig_CManStart(i32 noundef %0, i32 noundef %1, i32 noundef %2) local_unnamed_addr #8 {
  %4 = shl i32 %1, 2
  %5 = shl i32 %2, 1
  %6 = add i32 %5, %4
  %7 = sext i32 %6 to i64
  %8 = add nsw i64 %7, 40
  %9 = tail call noalias ptr @malloc(i64 noundef %8) #20
  %10 = getelementptr inbounds nuw i8, ptr %9, i64 16
  store i64 0, ptr %10, align 8
  store i32 %0, ptr %9, align 8, !tbaa !47
  %11 = getelementptr inbounds nuw i8, ptr %9, i64 8
  store i32 %2, ptr %11, align 8, !tbaa !49
  %12 = getelementptr inbounds nuw i8, ptr %9, i64 4
  store i32 %1, ptr %12, align 4, !tbaa !50
  %13 = getelementptr inbounds nuw i8, ptr %9, i64 36
  store i32 %6, ptr %13, align 4, !tbaa !51
  %14 = add nsw i32 %0, 1
  %15 = getelementptr inbounds nuw i8, ptr %9, i64 12
  store i32 %14, ptr %15, align 4, !tbaa !52
  %16 = getelementptr inbounds nuw i8, ptr %9, i64 32
  store i32 -1, ptr %16, align 8, !tbaa !53
  %17 = getelementptr inbounds nuw i8, ptr %9, i64 40
  %18 = getelementptr inbounds nuw i8, ptr %9, i64 24
  store ptr %17, ptr %18, align 8, !tbaa !54
  ret ptr %9
}